target datalayout = "e-m:e-p270:32:32-p271:32:32-p272:64:64-i64:64-i128:128-f80:128-n8:16:32:64-S128"
target triple = "x86_64-pc-linux-gnu"

@UseG1GC = external global i8, align 1
@G1NewSizePercent = external global i32, align 4
@.str.8 = private unnamed_addr constant [81 x i8] c"G1MaxNewSizePercent (%u) must be greater than or equal to G1NewSizePercent (%u)\0A\00", align 1

; Function Attrs: mustprogress nounwind uwtable
define hidden noundef i32 @_Z33G1MaxNewSizePercentConstraintFuncjb(i32 noundef %0, i1 noundef zeroext %1) #1 {
  %3 = alloca i32, align 4
  %4 = alloca i32, align 4
  %5 = alloca i8, align 1
  store i32 %0, ptr %4, align 4
  %6 = zext i1 %1 to i8
  store i8 %6, ptr %5, align 1
  %7 = load i8, ptr @UseG1GC, align 1
  %8 = trunc i8 %7 to i1
  br i1 %8, label %10, label %9

9:                                                ; preds = %2
  store i32 0, ptr %3, align 4
  br label %20

10:                                               ; preds = %2
  %11 = load i32, ptr %4, align 4
  %12 = load i32, ptr @G1NewSizePercent, align 4
  %13 = icmp ult i32 %11, %12
  br i1 %13, label %14, label %19

14:                                               ; preds = %10
  %15 = load i8, ptr %5, align 1
  %16 = trunc i8 %15 to i1
  %17 = load i32, ptr %4, align 4
  %18 = load i32, ptr @G1NewSizePercent, align 4
  call void (i1, ptr, ...) @_ZN7JVMFlag10printErrorEbPKcz(i1 noundef zeroext %16, ptr noundef @.str.8, i32 noundef %17, i32 noundef %18)
  store i32 6, ptr %3, align 4
  br label %20

19:                                               ; preds = %10
  store i32 0, ptr %3, align 4
  br label %20

20:                                               ; preds = %19, %14, %9
  %21 = load i32, ptr %3, align 4
  ret i32 %21
}