; Function Attrs: mustprogress nounwind uwtable
define hidden noundef range(i32 0, 7) i32 @_Z33G1MaxNewSizePercentConstraintFuncjb(i32 noundef %0, i1 noundef zeroext %1) local_unnamed_addr #0 {
  %3 = load i8, ptr @UseG1GC, align 1
  %4 = trunc i8 %3 to i1
  br i1 %4, label %5, label %9

5:                                                ; preds = %2
  %6 = load i32, ptr @G1NewSizePercent, align 4
  %7 = icmp ugt i32 %6, %0
  br i1 %7, label %8, label %9

8:                                                ; preds = %5
  tail call void (i1, ptr, ...) @_ZN7JVMFlag10printErrorEbPKcz(i1 noundef zeroext %1, ptr noundef nonnull @.str.8, i32 noundef %0, i32 noundef %6) #4
  br label %9

9:                                                ; preds = %5, %2, %8
  %.0 = phi i32 [ 6, %8 ], [ 0, %2 ], [ 0, %5 ]
  ret i32 %.0
}